target datalayout = "e-m:e-p270:32:32-p271:32:32-p272:64:64-i64:64-i128:128-f80:128-n8:16:32:64-S128"
target triple = "x86_64-pc-linux-gnu"

%"class.cv::Matx.0" = type { [16 x float] }
%"class.cv::Point3_" = type { i32, i32, i32 }
%"class.cv::Point3_.1" = type { float, float, float }
%"class.cv::Vec.2" = type { %"class.cv::Matx.3" }
%"class.cv::Matx.3" = type { [4 x i32] }
%"class.cv::Vec.4" = type { %"class.cv::Matx.5" }
%"class.cv::Matx.5" = type { [8 x i32] }
%"class.cv::kinfu::TSDFVolume" = type { %"class.cv::kinfu::Volume.base", %"class.cv::Point3_", i8, %"class.cv::Point3_.1", float, %"class.cv::Vec.2", %"class.cv::Vec.4", [4 x i8] }
%"class.cv::kinfu::Volume.base" = type <{ ptr, float, float, %"class.cv::Affine3", float }>
%"class.cv::Affine3" = type { %"class.cv::Matx.0" }
%"class.cv::Mat" = type { i32, i32, i32, i32, ptr, ptr, ptr, ptr, ptr, ptr, %"struct.cv::MatSize", %"struct.cv::MatStep" }
%"struct.cv::MatSize" = type { ptr }
%"struct.cv::MatStep" = type { ptr, [2 x i64] }
%"class.cv::kinfu::TSDFVolumeCPU" = type { %"class.cv::kinfu::TSDFVolume.base", %"class.cv::Vec.2", %"class.cv::Vec.8", %"class.cv::Mat", %"class.cv::Mat" }
%"class.cv::kinfu::TSDFVolume.base" = type { %"class.cv::kinfu::Volume.base", %"class.cv::Point3_", i8, %"class.cv::Point3_.1", float, %"class.cv::Vec.2", %"class.cv::Vec.4" }
%"class.cv::Vec.8" = type { %"class.cv::Matx.9" }
%"class.cv::Matx.9" = type { [6 x float] }
%"class.cv::Matx.7" = type { [3 x i32] }

; Function Attrs: mustprogress nounwind uwtable
define linkonce_odr hidden void @_ZN2cv5kinfu6VolumeD2Ev(ptr noundef nonnull align 8 dereferenceable(84) %0) unnamed_addr #7 comdat align 2 {
  %2 = alloca ptr, align 8
  store ptr %0, ptr %2, align 8
  ret void
}

; Function Attrs: mustprogress nounwind uwtable
define linkonce_odr hidden void @_ZN2cv4MatxIiLi4ELi1EEC2Eiii(ptr noundef nonnull align 4 dereferenceable(16) %0, i32 noundef %1, i32 noundef %2, i32 noundef %3) unnamed_addr #7 comdat align 2 {
  %5 = alloca ptr, align 8
  %6 = alloca i32, align 4
  %7 = alloca i32, align 4
  %8 = alloca i32, align 4
  %9 = alloca i32, align 4
  store ptr %0, ptr %5, align 8
  store i32 %1, ptr %6, align 4
  store i32 %2, ptr %7, align 4
  store i32 %3, ptr %8, align 4
  %10 = load ptr, ptr %5, align 8
  %11 = load i32, ptr %6, align 4
  %12 = getelementptr inbounds %"class.cv::Matx.3", ptr %10, i32 0, i32 0
  %13 = getelementptr inbounds [4 x i32], ptr %12, i64 0, i64 0
  store i32 %11, ptr %13, align 4
  %14 = load i32, ptr %7, align 4
  %15 = getelementptr inbounds %"class.cv::Matx.3", ptr %10, i32 0, i32 0
  %16 = getelementptr inbounds [4 x i32], ptr %15, i64 0, i64 1
  store i32 %14, ptr %16, align 4
  %17 = load i32, ptr %8, align 4
  %18 = getelementptr inbounds %"class.cv::Matx.3", ptr %10, i32 0, i32 0
  %19 = getelementptr inbounds [4 x i32], ptr %18, i64 0, i64 2
  store i32 %17, ptr %19, align 4
  store i32 3, ptr %9, align 4
  br label %20

20:                                               ; preds = %28, %4
  %21 = load i32, ptr %9, align 4
  %22 = icmp slt i32 %21, 4
  br i1 %22, label %23, label %31

23:                                               ; preds = %20
  %24 = getelementptr inbounds %"class.cv::Matx.3", ptr %10, i32 0, i32 0
  %25 = load i32, ptr %9, align 4
  %26 = sext i32 %25 to i64
  %27 = getelementptr inbounds [4 x i32], ptr %24, i64 0, i64 %26
  store i32 0, ptr %27, align 4
  br label %28

28:                                               ; preds = %23
  %29 = load i32, ptr %9, align 4
  %30 = add nsw i32 %29, 1
  store i32 %30, ptr %9, align 4
  br label %20, !llvm.loop !49

31:                                               ; preds = %20
  ret void
}

; Function Attrs: mustprogress nounwind uwtable
define linkonce_odr hidden void @_ZN2cv4MatxIfLi6ELi1EEC2Ev(ptr noundef nonnull align 4 dereferenceable(24) %0) unnamed_addr #7 comdat align 2 {
  %2 = alloca ptr, align 8
  %3 = alloca i32, align 4
  store ptr %0, ptr %2, align 8
  %4 = load ptr, ptr %2, align 8
  store i32 0, ptr %3, align 4
  br label %5

5:                                                ; preds = %13, %1
  %6 = load i32, ptr %3, align 4
  %7 = icmp slt i32 %6, 6
  br i1 %7, label %8, label %16

8:                                                ; preds = %5
  %9 = getelementptr inbounds %"class.cv::Matx.9", ptr %4, i32 0, i32 0
  %10 = load i32, ptr %3, align 4
  %11 = sext i32 %10 to i64
  %12 = getelementptr inbounds [6 x float], ptr %9, i64 0, i64 %11
  store float 0.000000e+00, ptr %12, align 4
  br label %13

13:                                               ; preds = %8
  %14 = load i32, ptr %3, align 4
  %15 = add nsw i32 %14, 1
  store i32 %15, ptr %3, align 4
  br label %5, !llvm.loop !51

16:                                               ; preds = %5
  ret void
}

; Function Attrs: mustprogress nounwind uwtable
define linkonce_odr hidden void @_ZN2cv4MatxIiLi4ELi1EEC2Ev(ptr noundef nonnull align 4 dereferenceable(16) %0) unnamed_addr #7 comdat align 2 {
  %2 = alloca ptr, align 8
  %3 = alloca i32, align 4
  store ptr %0, ptr %2, align 8
  %4 = load ptr, ptr %2, align 8
  store i32 0, ptr %3, align 4
  br label %5

5:                                                ; preds = %13, %1
  %6 = load i32, ptr %3, align 4
  %7 = icmp slt i32 %6, 4
  br i1 %7, label %8, label %16

8:                                                ; preds = %5
  %9 = getelementptr inbounds %"class.cv::Matx.3", ptr %4, i32 0, i32 0
  %10 = load i32, ptr %3, align 4
  %11 = sext i32 %10 to i64
  %12 = getelementptr inbounds [4 x i32], ptr %9, i64 0, i64 %11
  store i32 0, ptr %12, align 4
  br label %13

13:                                               ; preds = %8
  %14 = load i32, ptr %3, align 4
  %15 = add nsw i32 %14, 1
  store i32 %15, ptr %3, align 4
  br label %5, !llvm.loop !47

16:                                               ; preds = %5
  ret void
}

; Function Attrs: mustprogress nounwind uwtable
define linkonce_odr hidden noundef nonnull align 4 dereferenceable(4) ptr @_ZNK2cv3VecIiLi3EEixEi(ptr noundef nonnull align 4 dereferenceable(12) %0, i32 noundef %1) #7 comdat align 2 {
  %3 = alloca ptr, align 8
  %4 = alloca i32, align 4
  store ptr %0, ptr %3, align 8
  store i32 %1, ptr %4, align 4
  %5 = load ptr, ptr %3, align 8
  %6 = getelementptr inbounds %"class.cv::Matx.7", ptr %5, i32 0, i32 0
  %7 = load i32, ptr %4, align 4
  %8 = sext i32 %7 to i64
  %9 = getelementptr inbounds [3 x i32], ptr %6, i64 0, i64 %8
  ret ptr %9
}

; Function Attrs: mustprogress nounwind uwtable
define linkonce_odr hidden void @_ZN2cv5kinfu10TSDFVolumeD2Ev(ptr noundef nonnull align 8 dereferenceable(164) %0) unnamed_addr #7 comdat align 2 {
  %2 = alloca ptr, align 8
  store ptr %0, ptr %2, align 8
  %3 = load ptr, ptr %2, align 8
  call void @_ZN2cv5kinfu6VolumeD2Ev(ptr noundef nonnull align 8 dereferenceable(84) %3) #3
  ret void
}

; Function Attrs: mustprogress nounwind uwtable
define internal noundef i32 @_ZN2cvL7rawTypeINS_5kinfu9TsdfVoxelEEEiv() #7 {
  %1 = alloca i32, align 4
  store i32 2, ptr %1, align 4
  ret i32 8
}

; Function Attrs: mustprogress uwtable
define linkonce_odr hidden void @_ZN2cv3VecIiLi4EEC2Eiii(ptr noundef nonnull align 4 dereferenceable(16) %0, i32 noundef %1, i32 noundef %2, i32 noundef %3) unnamed_addr #4 comdat align 2 {
  %5 = alloca ptr, align 8
  %6 = alloca i32, align 4
  %7 = alloca i32, align 4
  %8 = alloca i32, align 4
  store ptr %0, ptr %5, align 8
  store i32 %1, ptr %6, align 4
  store i32 %2, ptr %7, align 4
  store i32 %3, ptr %8, align 4
  %9 = load ptr, ptr %5, align 8
  %10 = load i32, ptr %6, align 4
  %11 = load i32, ptr %7, align 4
  %12 = load i32, ptr %8, align 4
  call void @_ZN2cv4MatxIiLi4ELi1EEC2Eiii(ptr noundef nonnull align 4 dereferenceable(16) %9, i32 noundef %10, i32 noundef %11, i32 noundef %12)
  ret void
}

; Function Attrs: mustprogress uwtable
define linkonce_odr hidden void @_ZN2cv3VecIfLi6EEC2Ev(ptr noundef nonnull align 4 dereferenceable(24) %0) unnamed_addr #4 comdat align 2 {
  %2 = alloca ptr, align 8
  store ptr %0, ptr %2, align 8
  %3 = load ptr, ptr %2, align 8
  call void @_ZN2cv4MatxIfLi6ELi1EEC2Ev(ptr noundef nonnull align 4 dereferenceable(24) %3)
  ret void
}

; Function Attrs: mustprogress uwtable
define linkonce_odr hidden void @_ZN2cv3VecIiLi4EEC2Ev(ptr noundef nonnull align 4 dereferenceable(16) %0) unnamed_addr #4 comdat align 2 {
  %2 = alloca ptr, align 8
  store ptr %0, ptr %2, align 8
  %3 = load ptr, ptr %2, align 8
  call void @_ZN2cv4MatxIiLi4ELi1EEC2Ev(ptr noundef nonnull align 4 dereferenceable(16) %3)
  ret void
}

; Function Attrs: mustprogress uwtable
define linkonce_odr hidden void @_ZN2cv7Point3_IiEC2ERKNS_3VecIiLi3EEE(ptr noundef nonnull align 4 dereferenceable(12) %0, ptr noundef nonnull align 4 dereferenceable(12) %1) unnamed_addr #4 comdat align 2 {
  %3 = alloca ptr, align 8
  %4 = alloca ptr, align 8
  store ptr %0, ptr %3, align 8
  store ptr %1, ptr %4, align 8
  %5 = load ptr, ptr %3, align 8
  %6 = getelementptr inbounds %"class.cv::Point3_", ptr %5, i32 0, i32 0
  %7 = load ptr, ptr %4, align 8
  %8 = call noundef nonnull align 4 dereferenceable(4) ptr @_ZNK2cv3VecIiLi3EEixEi(ptr noundef nonnull align 4 dereferenceable(12) %7, i32 noundef 0)
  %9 = load i32, ptr %8, align 4
  store i32 %9, ptr %6, align 4
  %10 = getelementptr inbounds %"class.cv::Point3_", ptr %5, i32 0, i32 1
  %11 = load ptr, ptr %4, align 8
  %12 = call noundef nonnull align 4 dereferenceable(4) ptr @_ZNK2cv3VecIiLi3EEixEi(ptr noundef nonnull align 4 dereferenceable(12) %11, i32 noundef 1)
  %13 = load i32, ptr %12, align 4
  store i32 %13, ptr %10, align 4
  %14 = getelementptr inbounds %"class.cv::Point3_", ptr %5, i32 0, i32 2
  %15 = load ptr, ptr %4, align 8
  %16 = call noundef nonnull align 4 dereferenceable(4) ptr @_ZNK2cv3VecIiLi3EEixEi(ptr noundef nonnull align 4 dereferenceable(12) %15, i32 noundef 2)
  %17 = load i32, ptr %16, align 4
  store i32 %17, ptr %14, align 4
  ret void
}

; Function Attrs: mustprogress uwtable
define hidden void @_ZN2cv5kinfu13TSDFVolumeCPUC2EfNS_4MatxIfLi4ELi4EEEffiNS_3VecIiLi3EEEb(ptr noundef nonnull align 8 dereferenceable(400) %0, float noundef %1, ptr noundef byval(%"class.cv::Matx.0") align 8 %2, float noundef %3, float noundef %4, i32 noundef %5, ptr noundef %6, i1 noundef zeroext %7) unnamed_addr #4 align 2 personality ptr @__gxx_personality_v0 {
  %9 = alloca ptr, align 8
  %10 = alloca float, align 4
  %11 = alloca float, align 4
  %12 = alloca float, align 4
  %13 = alloca i32, align 4
  %14 = alloca ptr, align 8
  %15 = alloca i8, align 1
  %16 = alloca %"class.cv::Matx.0", align 8
  %17 = alloca %"class.cv::Point3_", align 4
  %18 = alloca { i64, i32 }, align 4
  %19 = alloca ptr, align 8
  %20 = alloca i32, align 4
  %21 = alloca i32, align 4
  %22 = alloca i32, align 4
  %23 = alloca i32, align 4
  %24 = alloca %"class.cv::Vec.2", align 4
  %25 = alloca %"class.cv::Mat", align 8
  store ptr %0, ptr %9, align 8
  store float %1, ptr %10, align 4
  store float %3, ptr %11, align 4
  store float %4, ptr %12, align 4
  store i32 %5, ptr %13, align 4
  store ptr %6, ptr %14, align 8
  %26 = zext i1 %7 to i8
  store i8 %26, ptr %15, align 1
  %27 = load ptr, ptr %9, align 8
  %28 = load float, ptr %10, align 4
  call void @llvm.memcpy.p0.p0.i64(ptr align 4 %16, ptr align 8 %2, i64 64, i1 false)
  %29 = load float, ptr %11, align 4
  %30 = load float, ptr %12, align 4
  %31 = load i32, ptr %13, align 4
  call void @_ZN2cv7Point3_IiEC2ERKNS_3VecIiLi3EEE(ptr noundef nonnull align 4 dereferenceable(12) %17, ptr noundef nonnull align 4 dereferenceable(12) %6)
  %32 = load i8, ptr %15, align 1
  %33 = trunc i8 %32 to i1
  call void @llvm.memcpy.p0.p0.i64(ptr align 4 %18, ptr align 4 %17, i64 12, i1 false)
  %34 = getelementptr inbounds { i64, i32 }, ptr %18, i32 0, i32 0
  %35 = load i64, ptr %34, align 4
  %36 = getelementptr inbounds { i64, i32 }, ptr %18, i32 0, i32 1
  %37 = load i32, ptr %36, align 4
  call void @_ZN2cv5kinfu10TSDFVolumeC2EfNS_4MatxIfLi4ELi4EEEffiNS_7Point3_IiEEb(ptr noundef nonnull align 8 dereferenceable(164) %27, float noundef %28, ptr noundef byval(%"class.cv::Matx.0") align 8 %16, float noundef %29, float noundef %30, i32 noundef %31, i64 %35, i32 %37, i1 noundef zeroext %33)
  store ptr getelementptr inbounds inrange(-16, 88) ({ [13 x ptr] }, ptr @_ZTVN2cv5kinfu13TSDFVolumeCPUE, i32 0, i32 0, i32 2), ptr %27, align 8
  %38 = getelementptr inbounds %"class.cv::kinfu::TSDFVolumeCPU", ptr %27, i32 0, i32 1
  invoke void @_ZN2cv3VecIiLi4EEC2Ev(ptr noundef nonnull align 4 dereferenceable(16) %38)
          to label %39 unwind label %57

39:                                               ; preds = %8
  %40 = getelementptr inbounds %"class.cv::kinfu::TSDFVolumeCPU", ptr %27, i32 0, i32 2
  invoke void @_ZN2cv3VecIfLi6EEC2Ev(ptr noundef nonnull align 4 dereferenceable(24) %40)
          to label %41 unwind label %57

41:                                               ; preds = %39
  %42 = getelementptr inbounds %"class.cv::kinfu::TSDFVolumeCPU", ptr %27, i32 0, i32 3
  call void @_ZN2cv3MatC1Ev(ptr noundef nonnull align 8 dereferenceable(96) %42) #3
  %43 = getelementptr inbounds %"class.cv::kinfu::TSDFVolumeCPU", ptr %27, i32 0, i32 4
  call void @_ZN2cv3MatC1Ev(ptr noundef nonnull align 8 dereferenceable(96) %43) #3
  %44 = load i8, ptr %15, align 1
  %45 = trunc i8 %44 to i1
  br i1 %45, label %46, label %61

46:                                               ; preds = %41
  %47 = getelementptr inbounds %"class.cv::kinfu::TSDFVolume", ptr %27, i32 0, i32 1
  %48 = getelementptr inbounds %"class.cv::Point3_", ptr %47, i32 0, i32 2
  %49 = load i32, ptr %48, align 4
  %50 = getelementptr inbounds %"class.cv::kinfu::TSDFVolume", ptr %27, i32 0, i32 1
  %51 = getelementptr inbounds %"class.cv::Point3_", ptr %50, i32 0, i32 1
  %52 = load i32, ptr %51, align 4
  %53 = mul nsw i32 %49, %52
  store i32 %53, ptr %21, align 4
  %54 = getelementptr inbounds %"class.cv::kinfu::TSDFVolume", ptr %27, i32 0, i32 1
  %55 = getelementptr inbounds %"class.cv::Point3_", ptr %54, i32 0, i32 2
  %56 = load i32, ptr %55, align 4
  store i32 %56, ptr %22, align 4
  store i32 1, ptr %23, align 4
  br label %72

57:                                               ; preds = %39, %8
  %58 = landingpad { ptr, i32 }
          cleanup
  %59 = extractvalue { ptr, i32 } %58, 0
  store ptr %59, ptr %19, align 8
  %60 = extractvalue { ptr, i32 } %58, 1
  store i32 %60, ptr %20, align 4
  br label %108

61:                                               ; preds = %41
  store i32 1, ptr %21, align 4
  %62 = getelementptr inbounds %"class.cv::kinfu::TSDFVolume", ptr %27, i32 0, i32 1
  %63 = getelementptr inbounds %"class.cv::Point3_", ptr %62, i32 0, i32 0
  %64 = load i32, ptr %63, align 4
  store i32 %64, ptr %22, align 4
  %65 = getelementptr inbounds %"class.cv::kinfu::TSDFVolume", ptr %27, i32 0, i32 1
  %66 = getelementptr inbounds %"class.cv::Point3_", ptr %65, i32 0, i32 0
  %67 = load i32, ptr %66, align 4
  %68 = getelementptr inbounds %"class.cv::kinfu::TSDFVolume", ptr %27, i32 0, i32 1
  %69 = getelementptr inbounds %"class.cv::Point3_", ptr %68, i32 0, i32 1
  %70 = load i32, ptr %69, align 4
  %71 = mul nsw i32 %67, %70
  store i32 %71, ptr %23, align 4
  br label %72

72:                                               ; preds = %61, %46
  %73 = load i32, ptr %21, align 4
  %74 = load i32, ptr %22, align 4
  %75 = load i32, ptr %23, align 4
  invoke void @_ZN2cv3VecIiLi4EEC2Eiii(ptr noundef nonnull align 4 dereferenceable(16) %24, i32 noundef %73, i32 noundef %74, i32 noundef %75)
          to label %76 unwind label %99

76:                                               ; preds = %72
  %77 = getelementptr inbounds %"class.cv::kinfu::TSDFVolumeCPU", ptr %27, i32 0, i32 1
  call void @llvm.memcpy.p0.p0.i64(ptr align 4 %77, ptr align 4 %24, i64 16, i1 false)
  %78 = getelementptr inbounds %"class.cv::kinfu::TSDFVolume", ptr %27, i32 0, i32 1
  %79 = getelementptr inbounds %"class.cv::Point3_", ptr %78, i32 0, i32 0
  %80 = load i32, ptr %79, align 4
  %81 = getelementptr inbounds %"class.cv::kinfu::TSDFVolume", ptr %27, i32 0, i32 1
  %82 = getelementptr inbounds %"class.cv::Point3_", ptr %81, i32 0, i32 1
  %83 = load i32, ptr %82, align 4
  %84 = mul nsw i32 %80, %83
  %85 = getelementptr inbounds %"class.cv::kinfu::TSDFVolume", ptr %27, i32 0, i32 1
  %86 = getelementptr inbounds %"class.cv::Point3_", ptr %85, i32 0, i32 2
  %87 = load i32, ptr %86, align 4
  %88 = mul nsw i32 %84, %87
  %89 = invoke noundef i32 @_ZN2cvL7rawTypeINS_5kinfu9TsdfVoxelEEEiv()
          to label %90 unwind label %99

90:                                               ; preds = %76
  invoke void @_ZN2cv3MatC1Eiii(ptr noundef nonnull align 8 dereferenceable(96) %25, i32 noundef 1, i32 noundef %88, i32 noundef %89)
          to label %91 unwind label %99

91:                                               ; preds = %90
  %92 = getelementptr inbounds %"class.cv::kinfu::TSDFVolumeCPU", ptr %27, i32 0, i32 4
  %93 = invoke noundef nonnull align 8 dereferenceable(96) ptr @_ZN2cv3MataSEOS0_(ptr noundef nonnull align 8 dereferenceable(96) %92, ptr noundef nonnull align 8 dereferenceable(96) %25)
          to label %94 unwind label %103

94:                                               ; preds = %91
  call void @_ZN2cv3MatD1Ev(ptr noundef nonnull align 8 dereferenceable(96) %25) #3
  %95 = load ptr, ptr %27, align 8
  %96 = getelementptr inbounds ptr, ptr %95, i64 9
  %97 = load ptr, ptr %96, align 8
  invoke void %97(ptr noundef nonnull align 8 dereferenceable(400) %27)
          to label %98 unwind label %99

98:                                               ; preds = %94
  ret void

99:                                               ; preds = %94, %90, %76, %72
  %100 = landingpad { ptr, i32 }
          cleanup
  %101 = extractvalue { ptr, i32 } %100, 0
  store ptr %101, ptr %19, align 8
  %102 = extractvalue { ptr, i32 } %100, 1
  store i32 %102, ptr %20, align 4
  br label %107

103:                                              ; preds = %91
  %104 = landingpad { ptr, i32 }
          cleanup
  %105 = extractvalue { ptr, i32 } %104, 0
  store ptr %105, ptr %19, align 8
  %106 = extractvalue { ptr, i32 } %104, 1
  store i32 %106, ptr %20, align 4
  call void @_ZN2cv3MatD1Ev(ptr noundef nonnull align 8 dereferenceable(96) %25) #3
  br label %107

107:                                              ; preds = %103, %99
  call void @_ZN2cv3MatD1Ev(ptr noundef nonnull align 8 dereferenceable(96) %43) #3
  call void @_ZN2cv3MatD1Ev(ptr noundef nonnull align 8 dereferenceable(96) %42) #3
  br label %108

108:                                              ; preds = %107, %57
  call void @_ZN2cv5kinfu10TSDFVolumeD2Ev(ptr noundef nonnull align 8 dereferenceable(164) %27) #3
  br label %109

109:                                              ; preds = %108
  %110 = load ptr, ptr %19, align 8
  %111 = load i32, ptr %20, align 4
  %112 = insertvalue { ptr, i32 } poison, ptr %110, 0
  %113 = insertvalue { ptr, i32 } %112, i32 %111, 1
  resume { ptr, i32 } %113
}