; Function Attrs: mustprogress uwtable
define hidden void @_ZN2cv5kinfu13TSDFVolumeCPUC2EfNS_4MatxIfLi4ELi4EEEffiNS_3VecIiLi3EEEb(ptr noundef nonnull align 8 dereferenceable(400) %0, float noundef %1, ptr nocapture noundef readonly byval(%"class.cv::Matx.0") align 8 %2, float noundef %3, float noundef %4, i32 noundef %5, ptr nocapture noundef readonly %6, i1 noundef zeroext %7) unnamed_addr #6 align 2 personality ptr @__gxx_personality_v0 {
  %9 = alloca %"class.cv::Mat", align 8
  %10 = load i64, ptr %6, align 4
  %11 = getelementptr inbounds i8, ptr %6, i64 8
  %12 = load i32, ptr %11, align 4
  tail call void @_ZN2cv5kinfu10TSDFVolumeC2EfNS_4MatxIfLi4ELi4EEEffiNS_7Point3_IiEEb(ptr noundef nonnull align 8 dereferenceable(164) %0, float noundef %1, ptr noundef nonnull byval(%"class.cv::Matx.0") align 8 %2, float noundef %3, float noundef %4, i32 noundef %5, i64 %10, i32 %12, i1 noundef zeroext %7)
  store ptr getelementptr inbounds inrange(-16, 88) (i8, ptr @_ZTVN2cv5kinfu13TSDFVolumeCPUE, i64 16), ptr %0, align 8
  %13 = getelementptr inbounds i8, ptr %0, i64 164
  %14 = getelementptr inbounds i8, ptr %0, i64 208
  tail call void @llvm.memset.p0.i64(ptr noundef nonnull align 4 dereferenceable(40) %13, i8 0, i64 40, i1 false)
  tail call void @_ZN2cv3MatC1Ev(ptr noundef nonnull align 8 dereferenceable(96) %14) #23
  %15 = getelementptr inbounds i8, ptr %0, i64 304
  tail call void @_ZN2cv3MatC1Ev(ptr noundef nonnull align 8 dereferenceable(96) %15) #23
  %16 = getelementptr inbounds i8, ptr %0, i64 88
  %17 = load i32, ptr %16, align 8
  br i1 %7, label %18, label %22

18:                                               ; preds = %8
  %19 = getelementptr inbounds i8, ptr %0, i64 92
  %20 = load i32, ptr %19, align 4
  %21 = mul nsw i32 %17, %20
  %.phi.trans.insert = getelementptr inbounds i8, ptr %0, i64 84
  %.pre = load i32, ptr %.phi.trans.insert, align 4
  %.pre26 = mul nsw i32 %17, %.pre
  br label %26

22:                                               ; preds = %8
  %23 = getelementptr inbounds i8, ptr %0, i64 84
  %24 = load i32, ptr %23, align 4
  %25 = mul nsw i32 %17, %24
  %.phi.trans.insert24 = getelementptr inbounds i8, ptr %0, i64 92
  %.pre25 = load i32, ptr %.phi.trans.insert24, align 4
  br label %26

26:                                               ; preds = %18, %22
  %.pre-phi = phi i32 [ %.pre26, %18 ], [ %25, %22 ]
  %27 = phi i32 [ %20, %18 ], [ %.pre25, %22 ]
  %.012 = phi i32 [ %21, %18 ], [ 1, %22 ]
  %.011 = phi i32 [ %20, %18 ], [ %24, %22 ]
  %.0 = phi i32 [ 1, %18 ], [ %25, %22 ]
  store i32 %.012, ptr %13, align 4
  %.sroa.2.0..sroa_idx19 = getelementptr inbounds i8, ptr %0, i64 168
  store i32 %.011, ptr %.sroa.2.0..sroa_idx19, align 8
  %.sroa.3.0..sroa_idx = getelementptr inbounds i8, ptr %0, i64 172
  store i32 %.0, ptr %.sroa.3.0..sroa_idx, align 4
  %.sroa.4.0..sroa_idx = getelementptr inbounds i8, ptr %0, i64 176
  store i32 0, ptr %.sroa.4.0..sroa_idx, align 8
  %28 = mul nsw i32 %.pre-phi, %27
  invoke void @_ZN2cv3MatC1Eiii(ptr noundef nonnull align 8 dereferenceable(96) %9, i32 noundef 1, i32 noundef %28, i32 noundef 8)
          to label %29 unwind label %36

29:                                               ; preds = %26
  %30 = invoke noundef nonnull align 8 dereferenceable(96) ptr @_ZN2cv3MataSEOS0_(ptr noundef nonnull align 8 dereferenceable(96) %15, ptr noundef nonnull align 8 dereferenceable(96) %9)
          to label %31 unwind label %38

31:                                               ; preds = %29
  call void @_ZN2cv3MatD1Ev(ptr noundef nonnull align 8 dereferenceable(96) %9) #23
  %32 = load ptr, ptr %0, align 8
  %33 = getelementptr inbounds i8, ptr %32, i64 72
  %34 = load ptr, ptr %33, align 8
  invoke void %34(ptr noundef nonnull align 8 dereferenceable(400) %0)
          to label %35 unwind label %36

35:                                               ; preds = %31
  ret void

36:                                               ; preds = %31, %26
  %37 = landingpad { ptr, i32 }
          cleanup
  br label %40

38:                                               ; preds = %29
  %39 = landingpad { ptr, i32 }
          cleanup
  call void @_ZN2cv3MatD1Ev(ptr noundef nonnull align 8 dereferenceable(96) %9) #23
  br label %40

40:                                               ; preds = %38, %36
  %.pn = phi { ptr, i32 } [ %37, %36 ], [ %39, %38 ]
  call void @_ZN2cv3MatD1Ev(ptr noundef nonnull align 8 dereferenceable(96) %15) #23
  call void @_ZN2cv3MatD1Ev(ptr noundef nonnull align 8 dereferenceable(96) %14) #23
  resume { ptr, i32 } %.pn
}